target datalayout = "e-m:e-p270:32:32-p271:32:32-p272:64:64-i64:64-i128:128-f80:128-n8:16:32:64-S128"
target triple = "x86_64-pc-linux-gnu"

%struct.nghttp2_stream = type { i32, %struct.nghttp2_pq_entry, i64, i64, i64, i64, ptr, ptr, ptr, i64, i32, i32, i32, i32, i32, i32, i32, i16, i32, i8, i8, i8, i8, i8, i8 }
%struct.nghttp2_pq_entry = type { i64 }
%struct.nghttp2_session = type { %struct.nghttp2_map, %struct.nghttp2_outbound_queue, %struct.nghttp2_outbound_queue, %struct.nghttp2_outbound_queue, [8 x %struct.anon], %struct.nghttp2_active_outbound_item, %struct.nghttp2_inbound_frame, %struct.nghttp2_hd_deflater, %struct.nghttp2_hd_inflater, %struct.nghttp2_session_callbacks, %struct.nghttp2_mem, ptr, ptr, %struct.nghttp2_ratelim, i64, i64, i64, i64, i64, i64, i64, i64, i64, i64, i64, i64, i64, i64, i32, i32, i32, i32, i32, i32, i32, i32, i32, i32, i32, i32, i8, %struct.nghttp2_settings_storage, %struct.nghttp2_settings_storage, i32, i32, i32, i8, i8, i8, i8, i8, i8, [32 x i8] }
%struct.nghttp2_map = type { ptr, ptr, i64, i64 }
%struct.nghttp2_outbound_queue = type { ptr, ptr, i64 }
%struct.anon = type { %struct.nghttp2_pq }
%struct.nghttp2_pq = type { ptr, ptr, i64, i64, ptr }
%struct.nghttp2_active_outbound_item = type { ptr, %struct.nghttp2_bufs, i32 }
%struct.nghttp2_bufs = type { ptr, ptr, ptr, i64, i64, i64, i64, i64 }
%struct.nghttp2_inbound_frame = type { %union.nghttp2_frame, %union.nghttp2_ext_frame_payload, ptr, %struct.nghttp2_buf, %struct.nghttp2_buf, ptr, i64, i64, i64, i64, i32, [32 x i8] }
%union.nghttp2_frame = type { %struct.nghttp2_headers }
%struct.nghttp2_headers = type { %struct.nghttp2_frame_hd, i64, %struct.nghttp2_priority_spec, ptr, i64, i32 }
%struct.nghttp2_frame_hd = type { i64, i32, i8, i8, i8 }
%struct.nghttp2_priority_spec = type { i32, i32, i8 }
%union.nghttp2_ext_frame_payload = type { %struct.nghttp2_ext_altsvc }
%struct.nghttp2_ext_altsvc = type { ptr, i64, ptr, i64 }
%struct.nghttp2_buf = type { ptr, ptr, ptr, ptr, ptr }
%struct.nghttp2_hd_deflater = type { %struct.nghttp2_hd_context, %struct.nghttp2_hd_map, i64, i64, i8 }
%struct.nghttp2_hd_context = type { %struct.nghttp2_hd_ringbuf, ptr, i64, i64, i32, i8 }
%struct.nghttp2_hd_ringbuf = type { ptr, i64, i64, i64 }
%struct.nghttp2_hd_map = type { [128 x ptr] }
%struct.nghttp2_hd_inflater = type { %struct.nghttp2_hd_context, %struct.nghttp2_hd_huff_decode_context, %struct.nghttp2_buf, %struct.nghttp2_buf, ptr, ptr, ptr, ptr, i64, i64, i64, i64, i64, i32, i32, i8, i8, i8 }
%struct.nghttp2_hd_huff_decode_context = type { i16 }
%struct.nghttp2_session_callbacks = type { ptr, ptr, ptr, ptr, ptr, ptr, ptr, ptr, ptr, ptr, ptr, ptr, ptr, ptr, ptr, ptr, ptr, ptr, ptr, ptr, ptr, ptr, ptr, ptr, ptr, ptr, ptr, ptr }
%struct.nghttp2_mem = type { ptr, ptr, ptr, ptr, ptr }
%struct.nghttp2_ratelim = type { i64, i64, i64, i64 }
%struct.nghttp2_settings_storage = type { i32, i32, i32, i32, i32, i32, i32, i32 }
%struct.nghttp2_close_stream_on_goaway_arg = type { ptr, ptr, i32, i32 }

@.str.1 = private unnamed_addr constant [115 x i8] c"generated/home/dtcxzyw/WorkSpace/Projects/compilers/llvm-opt-benchmark/bench/nghttp2/nghttp2/lib/nghttp2_session.c\00", align 1
@.str.79 = private unnamed_addr constant [8 x i8] c"rv == 0\00", align 1
@__PRETTY_FUNCTION__.session_close_stream_on_goaway = private unnamed_addr constant [68 x i8] c"int session_close_stream_on_goaway(nghttp2_session *, int32_t, int)\00", align 1

; Function Attrs: nounwind uwtable
define i32 @nghttp2_is_fatal(i32 noundef %0) #0 {
  %2 = alloca i32, align 4
  store i32 %0, ptr %2, align 4, !tbaa !3
  %3 = load i32, ptr %2, align 4, !tbaa !3
  %4 = icmp slt i32 %3, -900
  %5 = zext i1 %4 to i32
  ret i32 %5
}

; Function Attrs: nounwind uwtable
define internal i32 @session_close_stream_on_goaway(ptr noundef %0, i32 noundef %1, i32 noundef %2) #0 {
  %4 = alloca i32, align 4
  %5 = alloca ptr, align 8
  %6 = alloca i32, align 4
  %7 = alloca i32, align 4
  %8 = alloca i32, align 4
  %9 = alloca ptr, align 8
  %10 = alloca ptr, align 8
  %11 = alloca %struct.nghttp2_close_stream_on_goaway_arg, align 8
  %12 = alloca i32, align 4
  store ptr %0, ptr %5, align 8, !tbaa !7
  store i32 %1, ptr %6, align 4, !tbaa !3
  store i32 %2, ptr %7, align 4, !tbaa !3
  call void @llvm.lifetime.start.p0(i64 4, ptr %8) #10
  call void @llvm.lifetime.start.p0(i64 8, ptr %9) #10
  call void @llvm.lifetime.start.p0(i64 8, ptr %10) #10
  call void @llvm.lifetime.start.p0(i64 24, ptr %11) #10
  %13 = getelementptr inbounds nuw %struct.nghttp2_close_stream_on_goaway_arg, ptr %11, i32 0, i32 0
  %14 = load ptr, ptr %5, align 8, !tbaa !7
  store ptr %14, ptr %13, align 8, !tbaa !202
  %15 = getelementptr inbounds nuw %struct.nghttp2_close_stream_on_goaway_arg, ptr %11, i32 0, i32 1
  store ptr null, ptr %15, align 8, !tbaa !204
  %16 = getelementptr inbounds nuw %struct.nghttp2_close_stream_on_goaway_arg, ptr %11, i32 0, i32 2
  %17 = load i32, ptr %6, align 4, !tbaa !3
  store i32 %17, ptr %16, align 8, !tbaa !205
  %18 = getelementptr inbounds nuw %struct.nghttp2_close_stream_on_goaway_arg, ptr %11, i32 0, i32 3
  %19 = load i32, ptr %7, align 4, !tbaa !3
  store i32 %19, ptr %18, align 4, !tbaa !206
  %20 = load ptr, ptr %5, align 8, !tbaa !7
  %21 = getelementptr inbounds nuw %struct.nghttp2_session, ptr %20, i32 0, i32 0
  %22 = call i32 @nghttp2_map_each(ptr noundef %21, ptr noundef @find_stream_on_goaway_func, ptr noundef %11)
  store i32 %22, ptr %8, align 4, !tbaa !3
  %23 = load i32, ptr %8, align 4, !tbaa !3
  %24 = icmp eq i32 %23, 0
  br i1 %24, label %25, label %26

25:                                               ; preds = %3
  br label %27

26:                                               ; preds = %3
  call void @__assert_fail(ptr noundef @.str.79, ptr noundef @.str.1, i32 noundef 2396, ptr noundef @__PRETTY_FUNCTION__.session_close_stream_on_goaway) #12
  unreachable

27:                                               ; preds = %25
  %28 = getelementptr inbounds nuw %struct.nghttp2_close_stream_on_goaway_arg, ptr %11, i32 0, i32 1
  %29 = load ptr, ptr %28, align 8, !tbaa !204
  store ptr %29, ptr %9, align 8, !tbaa !43
  br label %30

30:                                               ; preds = %61, %27
  %31 = load ptr, ptr %9, align 8, !tbaa !43
  %32 = icmp ne ptr %31, null
  br i1 %32, label %33, label %62

33:                                               ; preds = %30
  %34 = load ptr, ptr %9, align 8, !tbaa !43
  %35 = getelementptr inbounds nuw %struct.nghttp2_stream, ptr %34, i32 0, i32 6
  %36 = load ptr, ptr %35, align 8, !tbaa !207
  store ptr %36, ptr %10, align 8, !tbaa !43
  %37 = load ptr, ptr %9, align 8, !tbaa !43
  %38 = getelementptr inbounds nuw %struct.nghttp2_stream, ptr %37, i32 0, i32 6
  store ptr null, ptr %38, align 8, !tbaa !207
  %39 = load ptr, ptr %5, align 8, !tbaa !7
  %40 = load ptr, ptr %9, align 8, !tbaa !43
  %41 = getelementptr inbounds nuw %struct.nghttp2_stream, ptr %40, i32 0, i32 10
  %42 = load i32, ptr %41, align 8, !tbaa !145
  %43 = call i32 @nghttp2_session_close_stream(ptr noundef %39, i32 noundef %42, i32 noundef 7)
  store i32 %43, ptr %8, align 4, !tbaa !3
  %44 = load ptr, ptr %10, align 8, !tbaa !43
  store ptr %44, ptr %9, align 8, !tbaa !43
  %45 = load i32, ptr %8, align 4, !tbaa !3
  %46 = call i32 @nghttp2_is_fatal(i32 noundef %45)
  %47 = icmp ne i32 %46, 0
  br i1 %47, label %48, label %61

48:                                               ; preds = %33
  br label %49

49:                                               ; preds = %52, %48
  %50 = load ptr, ptr %9, align 8, !tbaa !43
  %51 = icmp ne ptr %50, null
  br i1 %51, label %52, label %59

52:                                               ; preds = %49
  %53 = load ptr, ptr %9, align 8, !tbaa !43
  %54 = getelementptr inbounds nuw %struct.nghttp2_stream, ptr %53, i32 0, i32 6
  %55 = load ptr, ptr %54, align 8, !tbaa !207
  store ptr %55, ptr %10, align 8, !tbaa !43
  %56 = load ptr, ptr %9, align 8, !tbaa !43
  %57 = getelementptr inbounds nuw %struct.nghttp2_stream, ptr %56, i32 0, i32 6
  store ptr null, ptr %57, align 8, !tbaa !207
  %58 = load ptr, ptr %10, align 8, !tbaa !43
  store ptr %58, ptr %9, align 8, !tbaa !43
  br label %49, !llvm.loop !208

59:                                               ; preds = %49
  %60 = load i32, ptr %8, align 4, !tbaa !3
  store i32 %60, ptr %4, align 4
  store i32 1, ptr %12, align 4
  br label %63

61:                                               ; preds = %33
  br label %30, !llvm.loop !209

62:                                               ; preds = %30
  store i32 0, ptr %4, align 4
  store i32 1, ptr %12, align 4
  br label %63

63:                                               ; preds = %62, %59
  call void @llvm.lifetime.end.p0(i64 24, ptr %11) #10
  call void @llvm.lifetime.end.p0(i64 8, ptr %10) #10
  call void @llvm.lifetime.end.p0(i64 8, ptr %9) #10
  call void @llvm.lifetime.end.p0(i64 4, ptr %8) #10
  %64 = load i32, ptr %4, align 4
  ret i32 %64
}