; Function Attrs: nounwind uwtable
define internal fastcc range(i32 -902, 1) i32 @session_close_stream_on_goaway(ptr noundef %0, i32 noundef %1, i32 noundef range(i32 0, 2) %2) unnamed_addr #1 {
  %4 = alloca %struct.nghttp2_close_stream_on_goaway_arg, align 8
  call void @llvm.lifetime.start.p0(i64 24, ptr nonnull %4) #16
  store ptr %0, ptr %4, align 8, !tbaa !207
  %5 = getelementptr inbounds nuw i8, ptr %4, i64 8
  store ptr null, ptr %5, align 8, !tbaa !209
  %6 = getelementptr inbounds nuw i8, ptr %4, i64 16
  store i32 %1, ptr %6, align 8, !tbaa !210
  %7 = getelementptr inbounds nuw i8, ptr %4, i64 20
  store i32 %2, ptr %7, align 4, !tbaa !211
  %8 = call i32 @nghttp2_map_each(ptr noundef %0, ptr noundef nonnull @find_stream_on_goaway_func, ptr noundef nonnull %4) #16
  %9 = icmp eq i32 %8, 0
  br i1 %9, label %11, label %10

10:                                               ; preds = %3
  call void @__assert_fail(ptr noundef nonnull @.str.79, ptr noundef nonnull @.str.1, i32 noundef 2396, ptr noundef nonnull @__PRETTY_FUNCTION__.session_close_stream_on_goaway) #17
  unreachable

11:                                               ; preds = %3
  %12 = load ptr, ptr %5, align 8, !tbaa !209
  br label %13

13:                                               ; preds = %14, %11
  %.0 = phi ptr [ %12, %11 ], [ %16, %14 ]
  %.not = icmp eq ptr %.0, null
  br i1 %.not, label %.loopexit, label %14

14:                                               ; preds = %13
  %15 = getelementptr inbounds nuw i8, ptr %.0, i64 48
  %16 = load ptr, ptr %15, align 8, !tbaa !212
  store ptr null, ptr %15, align 8, !tbaa !212
  %17 = getelementptr inbounds nuw i8, ptr %.0, i64 80
  %18 = load i32, ptr %17, align 8, !tbaa !140
  %19 = call i32 @nghttp2_session_close_stream(ptr noundef %0, i32 noundef %18, i32 noundef 7)
  %20 = icmp sgt i32 %19, -901
  br i1 %20, label %13, label %.preheader, !llvm.loop !213

.preheader:                                       ; preds = %14
  %.not1922 = icmp eq ptr %16, null
  br i1 %.not1922, label %.loopexit, label %.lr.ph

.lr.ph:                                           ; preds = %.preheader, %.lr.ph
  %.123 = phi ptr [ %22, %.lr.ph ], [ %16, %.preheader ]
  %21 = getelementptr inbounds nuw i8, ptr %.123, i64 48
  %22 = load ptr, ptr %21, align 8, !tbaa !212
  store ptr null, ptr %21, align 8, !tbaa !212
  %.not19 = icmp eq ptr %22, null
  br i1 %.not19, label %.loopexit, label %.lr.ph, !llvm.loop !214

.loopexit:                                        ; preds = %13, %.lr.ph, %.preheader
  %.017 = phi i32 [ %19, %.preheader ], [ %19, %.lr.ph ], [ 0, %13 ]
  call void @llvm.lifetime.end.p0(i64 24, ptr nonnull %4) #16
  ret i32 %.017
}